ccopy_reg
_reconstructor
p0
(ctragen.ua_data_structure.uaDataStructure
UaDataStruct
p1
c__builtin__
object
p2
Ntp3
Rp4
(dp5
S'_graph'
p6
(dp7
S'folders'
p8
(dp9
g0
(ctragen.ua_data_structure.uaDataStructure
TragenFolder
p10
g2
Ntp11
Rp12
(dp13
S'name'
p14
S'example_folder_1'
p15
sS'namespace'
p16
I1
sS'content_struct_ptr'
p17
(dp18
g8
(dp19
g0
(g10
g2
Ntp20
Rp21
(dp22
g14
S'subfolder_4'
p23
sg16
I0
sg17
(dp24
g8
(dp25
sS'variables'
p26
(lp27
sS'objects'
p28
(dp29
g0
(ctragen.ua_data_structure.uaDataStructure
TragenObject
p30
g2
Ntp31
Rp32
(dp33
g14
S'myobject_5'
p34
sg16
I0
sg17
(dp35
g26
(lp36
sS'properties'
p37
(lp38
g0
(ctragen.ua_data_structure.uaDataStructure
TragenProperty
p39
g2
Ntp40
Rp41
(dp42
g14
S'AnotherProperty'
p43
sg16
I0
sS'value'
p44
S'random_value'
p45
sS'node_type'
p46
ctragen.ua_data_structure.uaDataStructure
NodeType
p47
(I3
tp48
Rp49
sS'parent_node'
p50
g32
sS'parent_node_name'
p51
g34
sbassg46
g47
(I4
tp52
Rp53
sg50
g21
sg51
g23
sbg35
ssg37
(lp54
ssg46
g53
sg50
g15
sg51
g15
sbg24
sg0
(g10
g2
Ntp55
Rp56
(dp57
g14
S'subfolder_3'
p58
sg16
I0
sg17
(dp59
g8
(dp60
sg26
(lp61
sg28
(dp62
sg37
(lp63
ssg46
g53
sg50
g15
sg51
g15
sbg59
ssg26
(lp64
sg28
(dp65
g0
(g30
g2
Ntp66
Rp67
(dp68
g14
S'object_1'
p69
sg16
I1
sg17
(dp70
g26
(lp71
g0
(ctragen.ua_data_structure.uaDataStructure
TragenVariable
p72
g2
Ntp73
Rp74
(dp75
g14
S'var_11'
p76
sg16
I1
sg44
I2
sg46
g47
(I2
tp77
Rp78
sg50
Nsg51
g69
sbag0
(g72
g2
Ntp79
Rp80
(dp81
g14
S'var_12'
p82
sS'is_reg_ud'
p83
I01
sg16
I1
sg44
F12.5
sg46
g78
sg50
Nsg51
g69
sbasg37
(lp84
g0
(g39
g2
Ntp85
Rp86
(dp87
g14
S'property_example'
p88
sg16
I1
sg44
S'running'
p89
sg46
g49
sg50
g70
sg51
g69
sbassg46
g53
sg50
Nsg51
g15
sbg70
ssg37
(lp90
ssg46
g53
sg50
Nsg51
Nsbg18
sg0
(g10
g2
Ntp91
Rp92
(dp93
g14
S'example_folder_2'
p94
sg16
I0
sg17
(dp95
g8
(dp96
sg26
(lp97
sg28
(dp98
g0
(g30
g2
Ntp99
Rp100
(dp101
g14
S'object_2'
p102
sg16
I0
sg17
(dp103
g26
(lp104
g0
(g72
g2
Ntp105
Rp106
(dp107
g14
S'var_21'
p108
sg16
I0
sg44
I0
sS'is_irreg_ud'
p109
I01
sS'is_writable'
p110
I01
sg46
g78
sg50
g100
sg51
g102
sbag0
(g72
g2
Ntp111
Rp112
(dp113
g14
S'var_22'
p114
sg16
I0
sg44
I1
sg46
g78
sg50
g100
sg51
g102
sbag0
(g72
g2
Ntp115
Rp116
(dp117
g14
S'var_23'
p118
sg16
I0
sg44
I2
sg46
g78
sg50
g100
sg51
g102
sbasg37
(lp119
g0
(g39
g2
Ntp120
Rp121
(dp122
g14
S'this_is_a_property'
p123
sg16
I0
sg44
S'stopped'
p124
sg46
g49
sg50
g100
sg51
g102
sbassg46
g53
sg50
Nsg51
Nsbg103
sg0
(g30
g2
Ntp125
Rp126
(dp127
g14
S'object_3'
p128
sg16
I0
sg17
(dp129
g26
(lp130
sg37
(lp131
g0
(g39
g2
Ntp132
Rp133
(dp134
g14
S'1st_property_of_object3'
p135
sg16
I0
sg44
S'random'
p136
sg110
I01
sg46
g49
sg50
g126
sg51
g128
sbassg46
g53
sg50
g92
sg51
g94
sbg129
ssg37
(lp137
ssg46
g53
sg50
Nsg51
Nsbg95
ssg26
(lp138
sg28
(dp139
g0
(g30
g2
Ntp140
Rp141
(dp142
g14
S'object_4'
p143
sg16
I0
sg17
(dp144
g26
(lp145
sg37
(lp146
g0
(g39
g2
Ntp147
Rp148
(dp149
g14
S'BestProperty'
p150
sg16
I0
sg44
S'ValueofBestProperty'
p151
sg46
g49
sg50
Nsg51
g143
sbassg46
g53
sg50
Nsg51
Nsbg144
ssg37
(lp152
ssb.